target datalayout = "e-m:e-p270:32:32-p271:32:32-p272:64:64-i64:64-i128:128-f80:128-n8:16:32:64-S128"
target triple = "x86_64-pc-linux-gnu"

@.str.12 = private unnamed_addr constant [19 x i8] c"button-press-event\00", align 1
@.str.50 = private unnamed_addr constant [8 x i8] c"changed\00", align 1
@.str.501 = private unnamed_addr constant [7 x i8] c"halign\00", align 1
@.str.502 = private unnamed_addr constant [7 x i8] c"xalign\00", align 1
@.str.503 = private unnamed_addr constant [10 x i8] c"ellipsize\00", align 1

; Function Attrs: inlinehint nounwind uwtable
define internal ptr @dt_ui_label_new(ptr noundef %0) #7 {
  %2 = alloca ptr, align 8
  %3 = alloca ptr, align 8
  store ptr %0, ptr %2, align 8, !tbaa !73
  call void @llvm.lifetime.start.p0(i64 8, ptr %3) #10
  %4 = load ptr, ptr %2, align 8, !tbaa !73
  %5 = call ptr @gtk_label_new(ptr noundef %4)
  store ptr %5, ptr %3, align 8, !tbaa !6
  %6 = load ptr, ptr %3, align 8, !tbaa !6
  call void (ptr, ptr, ...) @g_object_set(ptr noundef %6, ptr noundef @.str.501, i32 noundef 1, ptr noundef @.str.502, double noundef 0.000000e+00, ptr noundef @.str.503, i32 noundef 3, ptr noundef null)
  %7 = load ptr, ptr %3, align 8, !tbaa !6
  call void @llvm.lifetime.end.p0(i64 8, ptr %3) #10
  ret ptr %7
}

; Function Attrs: nounwind uwtable
define ptr @dt_gui_preferences_string(ptr noundef %0, ptr noundef %1, i32 noundef %2, i32 noundef %3) #0 {
  %5 = alloca ptr, align 8
  %6 = alloca ptr, align 8
  %7 = alloca i32, align 4
  %8 = alloca i32, align 4
  %9 = alloca ptr, align 8
  %10 = alloca ptr, align 8
  %11 = alloca ptr, align 8
  %12 = alloca ptr, align 8
  store ptr %0, ptr %5, align 8, !tbaa !111
  store ptr %1, ptr %6, align 8, !tbaa !73
  store i32 %2, ptr %7, align 4, !tbaa !57
  store i32 %3, ptr %8, align 4, !tbaa !57
  call void @llvm.lifetime.start.p0(i64 8, ptr %9) #10
  %13 = load ptr, ptr %6, align 8, !tbaa !73
  %14 = call ptr @dt_confgen_get_label(ptr noundef %13)
  %15 = call ptr @dcgettext(ptr noundef null, ptr noundef %14, i32 noundef 5) #10
  %16 = call ptr @dt_ui_label_new(ptr noundef %15)
  store ptr %16, ptr %9, align 8, !tbaa !6
  %17 = load ptr, ptr %9, align 8, !tbaa !6
  %18 = load ptr, ptr %6, align 8, !tbaa !73
  %19 = call ptr @dt_confgen_get_tooltip(ptr noundef %18)
  %20 = call ptr @dcgettext(ptr noundef null, ptr noundef %19, i32 noundef 5) #10
  call void @gtk_widget_set_tooltip_text(ptr noundef %17, ptr noundef %20)
  call void @llvm.lifetime.start.p0(i64 8, ptr %10) #10
  %21 = call ptr @gtk_event_box_new()
  store ptr %21, ptr %10, align 8, !tbaa !6
  %22 = load ptr, ptr %10, align 8, !tbaa !6
  call void @gtk_widget_add_events(ptr noundef %22, i32 noundef 256)
  %23 = load ptr, ptr %10, align 8, !tbaa !6
  %24 = call i64 @gtk_container_get_type() #11
  %25 = call ptr @g_type_check_instance_cast(ptr noundef %23, i64 noundef %24)
  %26 = load ptr, ptr %9, align 8, !tbaa !6
  call void @gtk_container_add(ptr noundef %25, ptr noundef %26)
  call void @llvm.lifetime.start.p0(i64 8, ptr %11) #10
  %27 = call ptr @gtk_entry_new()
  store ptr %27, ptr %11, align 8, !tbaa !6
  call void @llvm.lifetime.start.p0(i64 8, ptr %12) #10
  %28 = load ptr, ptr %6, align 8, !tbaa !73
  %29 = call ptr @dt_conf_get_string_const(ptr noundef %28)
  store ptr %29, ptr %12, align 8, !tbaa !73
  %30 = load ptr, ptr %11, align 8, !tbaa !6
  %31 = call i64 @gtk_entry_get_type() #11
  %32 = call ptr @g_type_check_instance_cast(ptr noundef %30, i64 noundef %31)
  %33 = load ptr, ptr %12, align 8, !tbaa !73
  call void @gtk_entry_set_text(ptr noundef %32, ptr noundef %33)
  %34 = load ptr, ptr %11, align 8, !tbaa !6
  call void @gtk_widget_set_hexpand(ptr noundef %34, i32 noundef 1)
  %35 = load ptr, ptr %11, align 8, !tbaa !6
  %36 = load ptr, ptr %6, align 8, !tbaa !73
  call void @gtk_widget_set_name(ptr noundef %35, ptr noundef %36)
  %37 = load ptr, ptr %5, align 8, !tbaa !111
  %38 = call i64 @gtk_grid_get_type() #11
  %39 = call ptr @g_type_check_instance_cast(ptr noundef %37, i64 noundef %38)
  %40 = load ptr, ptr %10, align 8, !tbaa !6
  %41 = load i32, ptr %7, align 4, !tbaa !57
  %42 = load i32, ptr %8, align 4, !tbaa !57
  call void @gtk_grid_attach(ptr noundef %39, ptr noundef %40, i32 noundef %41, i32 noundef %42, i32 noundef 1, i32 noundef 1)
  %43 = load ptr, ptr %5, align 8, !tbaa !111
  %44 = call i64 @gtk_grid_get_type() #11
  %45 = call ptr @g_type_check_instance_cast(ptr noundef %43, i64 noundef %44)
  %46 = load ptr, ptr %11, align 8, !tbaa !6
  %47 = load i32, ptr %7, align 4, !tbaa !57
  %48 = add i32 %47, 1
  %49 = load i32, ptr %8, align 4, !tbaa !57
  call void @gtk_grid_attach(ptr noundef %45, ptr noundef %46, i32 noundef %48, i32 noundef %49, i32 noundef 1, i32 noundef 1)
  %50 = load ptr, ptr %11, align 8, !tbaa !6
  %51 = call ptr @g_type_check_instance_cast(ptr noundef %50, i64 noundef 80)
  %52 = load ptr, ptr %6, align 8, !tbaa !73
  %53 = call i64 @g_signal_connect_data(ptr noundef %51, ptr noundef @.str.50, ptr noundef @_gui_preferences_string_callback, ptr noundef %52, ptr noundef null, i32 noundef 0)
  %54 = load ptr, ptr %10, align 8, !tbaa !6
  %55 = call ptr @g_type_check_instance_cast(ptr noundef %54, i64 noundef 80)
  %56 = load ptr, ptr %11, align 8, !tbaa !6
  %57 = call i64 @g_signal_connect_data(ptr noundef %55, ptr noundef @.str.12, ptr noundef @_gui_preferences_string_reset, ptr noundef %56, ptr noundef null, i32 noundef 0)
  %58 = load ptr, ptr %11, align 8, !tbaa !6
  call void @llvm.lifetime.end.p0(i64 8, ptr %12) #10
  call void @llvm.lifetime.end.p0(i64 8, ptr %11) #10
  call void @llvm.lifetime.end.p0(i64 8, ptr %10) #10
  call void @llvm.lifetime.end.p0(i64 8, ptr %9) #10
  ret ptr %58
}