; Function Attrs: nounwind uwtable
define ptr @dt_gui_preferences_string(ptr noundef %0, ptr noundef %1, i32 noundef %2, i32 noundef %3) local_unnamed_addr #0 {
  %5 = tail call ptr @dt_confgen_get_label(ptr noundef %1) #12
  %6 = tail call ptr @dcgettext(ptr noundef null, ptr noundef %5, i32 noundef 5) #12
  %7 = tail call ptr @gtk_label_new(ptr noundef %6) #12
  tail call void (ptr, ptr, ...) @g_object_set(ptr noundef %7, ptr noundef nonnull @.str.501, i32 noundef 1, ptr noundef nonnull @.str.502, double noundef 0.000000e+00, ptr noundef nonnull @.str.503, i32 noundef 3, ptr noundef null) #12
  %8 = tail call ptr @dt_confgen_get_tooltip(ptr noundef %1) #12
  %9 = tail call ptr @dcgettext(ptr noundef null, ptr noundef %8, i32 noundef 5) #12
  tail call void @gtk_widget_set_tooltip_text(ptr noundef %7, ptr noundef %9) #12
  %10 = tail call ptr @gtk_event_box_new() #12
  tail call void @gtk_widget_add_events(ptr noundef %10, i32 noundef 256) #12
  %11 = tail call i64 @gtk_container_get_type() #13
  %12 = tail call ptr @g_type_check_instance_cast(ptr noundef %10, i64 noundef %11) #12
  tail call void @gtk_container_add(ptr noundef %12, ptr noundef %7) #12
  %13 = tail call ptr @gtk_entry_new() #12
  %14 = tail call ptr @dt_conf_get_string_const(ptr noundef %1) #12
  %15 = tail call i64 @gtk_entry_get_type() #13
  %16 = tail call ptr @g_type_check_instance_cast(ptr noundef %13, i64 noundef %15) #12
  tail call void @gtk_entry_set_text(ptr noundef %16, ptr noundef %14) #12
  tail call void @gtk_widget_set_hexpand(ptr noundef %13, i32 noundef 1) #12
  tail call void @gtk_widget_set_name(ptr noundef %13, ptr noundef %1) #12
  %17 = tail call i64 @gtk_grid_get_type() #13
  %18 = tail call ptr @g_type_check_instance_cast(ptr noundef %0, i64 noundef %17) #12
  tail call void @gtk_grid_attach(ptr noundef %18, ptr noundef %10, i32 noundef %2, i32 noundef %3, i32 noundef 1, i32 noundef 1) #12
  %19 = tail call ptr @g_type_check_instance_cast(ptr noundef %0, i64 noundef %17) #12
  %20 = add i32 %2, 1
  tail call void @gtk_grid_attach(ptr noundef %19, ptr noundef %13, i32 noundef %20, i32 noundef %3, i32 noundef 1, i32 noundef 1) #12
  %21 = tail call ptr @g_type_check_instance_cast(ptr noundef %13, i64 noundef 80) #12
  %22 = tail call i64 @g_signal_connect_data(ptr noundef %21, ptr noundef nonnull @.str.50, ptr noundef nonnull @_gui_preferences_string_callback, ptr noundef %1, ptr noundef null, i32 noundef 0) #12
  %23 = tail call ptr @g_type_check_instance_cast(ptr noundef %10, i64 noundef 80) #12
  %24 = tail call i64 @g_signal_connect_data(ptr noundef %23, ptr noundef nonnull @.str.12, ptr noundef nonnull @_gui_preferences_string_reset, ptr noundef %13, ptr noundef null, i32 noundef 0) #12
  ret ptr %13
}